target datalayout = "e-m:e-p270:32:32-p271:32:32-p272:64:64-i64:64-i128:128-f80:128-n8:16:32:64-S128"
target triple = "x86_64-pc-linux-gnu"

%struct.HapContext = type { ptr, %struct.GetByteContext, i32, i32, i32, i32, ptr, ptr, ptr, i64, i64, i32, i32, %struct.TextureDSPThreadContext, [2 x %struct.TextureDSPThreadContext] }
%struct.GetByteContext = type { ptr, ptr, ptr }
%struct.TextureDSPThreadContext = type { %union.anon, i64, i32, i32, %union.anon.0, i32, i32, i32, ptr }
%union.anon = type { ptr }
%union.anon.0 = type { ptr }

; Function Attrs: nounwind uwtable
define i32 @ff_hap_set_chunk_count(ptr noundef %0, i32 noundef %1, i32 noundef %2) #0 {
  %4 = alloca ptr, align 8
  %5 = alloca i32, align 4
  %6 = alloca i32, align 4
  %7 = alloca i32, align 4
  %8 = alloca i32, align 4
  store ptr %0, ptr %4, align 8, !tbaa !4
  store i32 %1, ptr %5, align 4, !tbaa !9
  store i32 %2, ptr %6, align 4, !tbaa !9
  call void @llvm.lifetime.start.p0(i64 4, ptr %7) #5
  store i32 0, ptr %7, align 4, !tbaa !9
  %9 = load i32, ptr %6, align 4, !tbaa !9
  %10 = icmp eq i32 %9, 1
  br i1 %10, label %11, label %42

11:                                               ; preds = %3
  %12 = load ptr, ptr %4, align 8, !tbaa !4
  %13 = getelementptr inbounds nuw %struct.HapContext, ptr %12, i32 0, i32 5
  %14 = load i32, ptr %13, align 4, !tbaa !11
  %15 = load i32, ptr %5, align 4, !tbaa !9
  %16 = icmp ne i32 %14, %15
  br i1 %16, label %17, label %42

17:                                               ; preds = %11
  call void @llvm.lifetime.start.p0(i64 4, ptr %8) #5
  %18 = load ptr, ptr %4, align 8, !tbaa !4
  %19 = getelementptr inbounds nuw %struct.HapContext, ptr %18, i32 0, i32 6
  %20 = load i32, ptr %5, align 4, !tbaa !9
  %21 = sext i32 %20 to i64
  %22 = call i32 @av_reallocp_array(ptr noundef %19, i64 noundef %21, i64 noundef 32)
  store i32 %22, ptr %8, align 4, !tbaa !9
  %23 = load i32, ptr %8, align 4, !tbaa !9
  %24 = icmp eq i32 %23, 0
  br i1 %24, label %25, label %31

25:                                               ; preds = %17
  %26 = load ptr, ptr %4, align 8, !tbaa !4
  %27 = getelementptr inbounds nuw %struct.HapContext, ptr %26, i32 0, i32 7
  %28 = load i32, ptr %5, align 4, !tbaa !9
  %29 = sext i32 %28 to i64
  %30 = call i32 @av_reallocp_array(ptr noundef %27, i64 noundef %29, i64 noundef 4)
  store i32 %30, ptr %8, align 4, !tbaa !9
  br label %31

31:                                               ; preds = %25, %17
  %32 = load i32, ptr %8, align 4, !tbaa !9
  %33 = icmp slt i32 %32, 0
  br i1 %33, label %34, label %37

34:                                               ; preds = %31
  %35 = load ptr, ptr %4, align 8, !tbaa !4
  %36 = getelementptr inbounds nuw %struct.HapContext, ptr %35, i32 0, i32 5
  store i32 0, ptr %36, align 4, !tbaa !11
  br label %41

37:                                               ; preds = %31
  %38 = load i32, ptr %5, align 4, !tbaa !9
  %39 = load ptr, ptr %4, align 8, !tbaa !4
  %40 = getelementptr inbounds nuw %struct.HapContext, ptr %39, i32 0, i32 5
  store i32 %38, ptr %40, align 4, !tbaa !11
  br label %41

41:                                               ; preds = %37, %34
  call void @llvm.lifetime.end.p0(i64 4, ptr %8) #5
  br label %50

42:                                               ; preds = %11, %3
  %43 = load ptr, ptr %4, align 8, !tbaa !4
  %44 = getelementptr inbounds nuw %struct.HapContext, ptr %43, i32 0, i32 5
  %45 = load i32, ptr %44, align 4, !tbaa !11
  %46 = load i32, ptr %5, align 4, !tbaa !9
  %47 = icmp ne i32 %45, %46
  br i1 %47, label %48, label %49

48:                                               ; preds = %42
  store i32 -1094995529, ptr %7, align 4, !tbaa !9
  br label %49

49:                                               ; preds = %48, %42
  br label %50

50:                                               ; preds = %49, %41
  %51 = load i32, ptr %7, align 4, !tbaa !9
  call void @llvm.lifetime.end.p0(i64 4, ptr %7) #5
  ret i32 %51
}

; Function Attrs: nocallback nofree nosync nounwind willreturn memory(argmem: readwrite)
declare void @llvm.lifetime.start.p0(i64 immarg, ptr captures(none)) #1

declare i32 @av_reallocp_array(ptr noundef, i64 noundef, i64 noundef) #2

; Function Attrs: nocallback nofree nosync nounwind willreturn memory(argmem: readwrite)
declare void @llvm.lifetime.end.p0(i64 immarg, ptr captures(none)) #1

; Function Attrs: cold nounwind optsize uwtable
define void @ff_hap_free_context(ptr noundef %0) #3 {
  %2 = alloca ptr, align 8
  store ptr %0, ptr %2, align 8, !tbaa !4
  %3 = load ptr, ptr %2, align 8, !tbaa !4
  %4 = getelementptr inbounds nuw %struct.HapContext, ptr %3, i32 0, i32 8
  call void @av_freep(ptr noundef %4)
  %5 = load ptr, ptr %2, align 8, !tbaa !4
  %6 = getelementptr inbounds nuw %struct.HapContext, ptr %5, i32 0, i32 6
  call void @av_freep(ptr noundef %6)
  %7 = load ptr, ptr %2, align 8, !tbaa !4
  %8 = getelementptr inbounds nuw %struct.HapContext, ptr %7, i32 0, i32 7
  call void @av_freep(ptr noundef %8)
  ret void
}

declare void @av_freep(ptr noundef) #2

; Function Attrs: nounwind uwtable
define i32 @ff_hap_parse_section_header(ptr noundef %0, ptr noundef %1, ptr noundef %2) #0 {
  %4 = alloca i32, align 4
  %5 = alloca ptr, align 8
  %6 = alloca ptr, align 8
  %7 = alloca ptr, align 8
  store ptr %0, ptr %5, align 8, !tbaa !20
  store ptr %1, ptr %6, align 8, !tbaa !22
  store ptr %2, ptr %7, align 8, !tbaa !23
  %8 = load ptr, ptr %5, align 8, !tbaa !20
  %9 = call i32 @bytestream2_get_bytes_left(ptr noundef %8)
  %10 = icmp slt i32 %9, 4
  br i1 %10, label %11, label %12

11:                                               ; preds = %3
  store i32 -1094995529, ptr %4, align 4
  br label %43

12:                                               ; preds = %3
  %13 = load ptr, ptr %5, align 8, !tbaa !20
  %14 = call i32 @bytestream2_get_le24(ptr noundef %13)
  %15 = load ptr, ptr %6, align 8, !tbaa !22
  store i32 %14, ptr %15, align 4, !tbaa !9
  %16 = load ptr, ptr %5, align 8, !tbaa !20
  %17 = call i32 @bytestream2_get_byte(ptr noundef %16)
  %18 = load ptr, ptr %7, align 8, !tbaa !23
  store i32 %17, ptr %18, align 4, !tbaa !9
  %19 = load ptr, ptr %6, align 8, !tbaa !22
  %20 = load i32, ptr %19, align 4, !tbaa !9
  %21 = icmp eq i32 %20, 0
  br i1 %21, label %22, label %31

22:                                               ; preds = %12
  %23 = load ptr, ptr %5, align 8, !tbaa !20
  %24 = call i32 @bytestream2_get_bytes_left(ptr noundef %23)
  %25 = icmp slt i32 %24, 4
  br i1 %25, label %26, label %27

26:                                               ; preds = %22
  store i32 -1094995529, ptr %4, align 4
  br label %43

27:                                               ; preds = %22
  %28 = load ptr, ptr %5, align 8, !tbaa !20
  %29 = call i32 @bytestream2_get_le32(ptr noundef %28)
  %30 = load ptr, ptr %6, align 8, !tbaa !22
  store i32 %29, ptr %30, align 4, !tbaa !9
  br label %31

31:                                               ; preds = %27, %12
  %32 = load ptr, ptr %6, align 8, !tbaa !22
  %33 = load i32, ptr %32, align 4, !tbaa !9
  %34 = load ptr, ptr %5, align 8, !tbaa !20
  %35 = call i32 @bytestream2_get_bytes_left(ptr noundef %34)
  %36 = icmp sgt i32 %33, %35
  br i1 %36, label %41, label %37

37:                                               ; preds = %31
  %38 = load ptr, ptr %6, align 8, !tbaa !22
  %39 = load i32, ptr %38, align 4, !tbaa !9
  %40 = icmp slt i32 %39, 0
  br i1 %40, label %41, label %42

41:                                               ; preds = %37, %31
  store i32 -1094995529, ptr %4, align 4
  br label %43

42:                                               ; preds = %37
  store i32 0, ptr %4, align 4
  br label %43

43:                                               ; preds = %42, %41, %26, %11
  %44 = load i32, ptr %4, align 4
  ret i32 %44
}

; Function Attrs: alwaysinline nounwind uwtable
define internal i32 @bytestream2_get_bytes_left(ptr noundef %0) #4 {
  %2 = alloca ptr, align 8
  store ptr %0, ptr %2, align 8, !tbaa !20
  %3 = load ptr, ptr %2, align 8, !tbaa !20
  %4 = getelementptr inbounds nuw %struct.GetByteContext, ptr %3, i32 0, i32 1
  %5 = load ptr, ptr %4, align 8, !tbaa !24
  %6 = load ptr, ptr %2, align 8, !tbaa !20
  %7 = getelementptr inbounds nuw %struct.GetByteContext, ptr %6, i32 0, i32 0
  %8 = load ptr, ptr %7, align 8, !tbaa !25
  %9 = ptrtoint ptr %5 to i64
  %10 = ptrtoint ptr %8 to i64
  %11 = sub i64 %9, %10
  %12 = trunc i64 %11 to i32
  ret i32 %12
}

; Function Attrs: alwaysinline nounwind uwtable
define internal i32 @bytestream2_get_le24(ptr noundef %0) #4 {
  %2 = alloca i32, align 4
  %3 = alloca ptr, align 8
  store ptr %0, ptr %3, align 8, !tbaa !20
  %4 = load ptr, ptr %3, align 8, !tbaa !20
  %5 = getelementptr inbounds nuw %struct.GetByteContext, ptr %4, i32 0, i32 1
  %6 = load ptr, ptr %5, align 8, !tbaa !24
  %7 = load ptr, ptr %3, align 8, !tbaa !20
  %8 = getelementptr inbounds nuw %struct.GetByteContext, ptr %7, i32 0, i32 0
  %9 = load ptr, ptr %8, align 8, !tbaa !25
  %10 = ptrtoint ptr %6 to i64
  %11 = ptrtoint ptr %9 to i64
  %12 = sub i64 %10, %11
  %13 = icmp slt i64 %12, 3
  br i1 %13, label %14, label %20

14:                                               ; preds = %1
  %15 = load ptr, ptr %3, align 8, !tbaa !20
  %16 = getelementptr inbounds nuw %struct.GetByteContext, ptr %15, i32 0, i32 1
  %17 = load ptr, ptr %16, align 8, !tbaa !24
  %18 = load ptr, ptr %3, align 8, !tbaa !20
  %19 = getelementptr inbounds nuw %struct.GetByteContext, ptr %18, i32 0, i32 0
  store ptr %17, ptr %19, align 8, !tbaa !25
  store i32 0, ptr %2, align 4
  br label %23

20:                                               ; preds = %1
  %21 = load ptr, ptr %3, align 8, !tbaa !20
  %22 = call i32 @bytestream2_get_le24u(ptr noundef %21)
  store i32 %22, ptr %2, align 4
  br label %23

23:                                               ; preds = %20, %14
  %24 = load i32, ptr %2, align 4
  ret i32 %24
}

; Function Attrs: alwaysinline nounwind uwtable
define internal i32 @bytestream2_get_byte(ptr noundef %0) #4 {
  %2 = alloca i32, align 4
  %3 = alloca ptr, align 8
  store ptr %0, ptr %3, align 8, !tbaa !20
  %4 = load ptr, ptr %3, align 8, !tbaa !20
  %5 = getelementptr inbounds nuw %struct.GetByteContext, ptr %4, i32 0, i32 1
  %6 = load ptr, ptr %5, align 8, !tbaa !24
  %7 = load ptr, ptr %3, align 8, !tbaa !20
  %8 = getelementptr inbounds nuw %struct.GetByteContext, ptr %7, i32 0, i32 0
  %9 = load ptr, ptr %8, align 8, !tbaa !25
  %10 = ptrtoint ptr %6 to i64
  %11 = ptrtoint ptr %9 to i64
  %12 = sub i64 %10, %11
  %13 = icmp slt i64 %12, 1
  br i1 %13, label %14, label %20

14:                                               ; preds = %1
  %15 = load ptr, ptr %3, align 8, !tbaa !20
  %16 = getelementptr inbounds nuw %struct.GetByteContext, ptr %15, i32 0, i32 1
  %17 = load ptr, ptr %16, align 8, !tbaa !24
  %18 = load ptr, ptr %3, align 8, !tbaa !20
  %19 = getelementptr inbounds nuw %struct.GetByteContext, ptr %18, i32 0, i32 0
  store ptr %17, ptr %19, align 8, !tbaa !25
  store i32 0, ptr %2, align 4
  br label %23

20:                                               ; preds = %1
  %21 = load ptr, ptr %3, align 8, !tbaa !20
  %22 = call i32 @bytestream2_get_byteu(ptr noundef %21)
  store i32 %22, ptr %2, align 4
  br label %23

23:                                               ; preds = %20, %14
  %24 = load i32, ptr %2, align 4
  ret i32 %24
}

; Function Attrs: alwaysinline nounwind uwtable
define internal i32 @bytestream2_get_le32(ptr noundef %0) #4 {
  %2 = alloca i32, align 4
  %3 = alloca ptr, align 8
  store ptr %0, ptr %3, align 8, !tbaa !20
  %4 = load ptr, ptr %3, align 8, !tbaa !20
  %5 = getelementptr inbounds nuw %struct.GetByteContext, ptr %4, i32 0, i32 1
  %6 = load ptr, ptr %5, align 8, !tbaa !24
  %7 = load ptr, ptr %3, align 8, !tbaa !20
  %8 = getelementptr inbounds nuw %struct.GetByteContext, ptr %7, i32 0, i32 0
  %9 = load ptr, ptr %8, align 8, !tbaa !25
  %10 = ptrtoint ptr %6 to i64
  %11 = ptrtoint ptr %9 to i64
  %12 = sub i64 %10, %11
  %13 = icmp slt i64 %12, 4
  br i1 %13, label %14, label %20

14:                                               ; preds = %1
  %15 = load ptr, ptr %3, align 8, !tbaa !20
  %16 = getelementptr inbounds nuw %struct.GetByteContext, ptr %15, i32 0, i32 1
  %17 = load ptr, ptr %16, align 8, !tbaa !24
  %18 = load ptr, ptr %3, align 8, !tbaa !20
  %19 = getelementptr inbounds nuw %struct.GetByteContext, ptr %18, i32 0, i32 0
  store ptr %17, ptr %19, align 8, !tbaa !25
  store i32 0, ptr %2, align 4
  br label %23

20:                                               ; preds = %1
  %21 = load ptr, ptr %3, align 8, !tbaa !20
  %22 = call i32 @bytestream2_get_le32u(ptr noundef %21)
  store i32 %22, ptr %2, align 4
  br label %23

23:                                               ; preds = %20, %14
  %24 = load i32, ptr %2, align 4
  ret i32 %24
}

; Function Attrs: alwaysinline nounwind uwtable
define internal i32 @bytestream2_get_le24u(ptr noundef %0) #4 {
  %2 = alloca ptr, align 8
  store ptr %0, ptr %2, align 8, !tbaa !20
  %3 = load ptr, ptr %2, align 8, !tbaa !20
  %4 = getelementptr inbounds nuw %struct.GetByteContext, ptr %3, i32 0, i32 0
  %5 = call i32 @bytestream_get_le24(ptr noundef %4)
  ret i32 %5
}

; Function Attrs: alwaysinline nounwind uwtable
define internal i32 @bytestream_get_le24(ptr noundef %0) #4 {
  %2 = alloca ptr, align 8
  store ptr %0, ptr %2, align 8, !tbaa !26
  %3 = load ptr, ptr %2, align 8, !tbaa !26
  %4 = load ptr, ptr %3, align 8, !tbaa !29
  %5 = getelementptr inbounds i8, ptr %4, i64 3
  store ptr %5, ptr %3, align 8, !tbaa !29
  %6 = load ptr, ptr %2, align 8, !tbaa !26
  %7 = load ptr, ptr %6, align 8, !tbaa !29
  %8 = getelementptr inbounds i8, ptr %7, i64 -3
  %9 = getelementptr inbounds i8, ptr %8, i64 2
  %10 = load i8, ptr %9, align 1, !tbaa !30
  %11 = zext i8 %10 to i32
  %12 = shl i32 %11, 16
  %13 = load ptr, ptr %2, align 8, !tbaa !26
  %14 = load ptr, ptr %13, align 8, !tbaa !29
  %15 = getelementptr inbounds i8, ptr %14, i64 -3
  %16 = getelementptr inbounds i8, ptr %15, i64 1
  %17 = load i8, ptr %16, align 1, !tbaa !30
  %18 = zext i8 %17 to i32
  %19 = shl i32 %18, 8
  %20 = or i32 %12, %19
  %21 = load ptr, ptr %2, align 8, !tbaa !26
  %22 = load ptr, ptr %21, align 8, !tbaa !29
  %23 = getelementptr inbounds i8, ptr %22, i64 -3
  %24 = getelementptr inbounds i8, ptr %23, i64 0
  %25 = load i8, ptr %24, align 1, !tbaa !30
  %26 = zext i8 %25 to i32
  %27 = or i32 %20, %26
  ret i32 %27
}

; Function Attrs: alwaysinline nounwind uwtable
define internal i32 @bytestream2_get_byteu(ptr noundef %0) #4 {
  %2 = alloca ptr, align 8
  store ptr %0, ptr %2, align 8, !tbaa !20
  %3 = load ptr, ptr %2, align 8, !tbaa !20
  %4 = getelementptr inbounds nuw %struct.GetByteContext, ptr %3, i32 0, i32 0
  %5 = call i32 @bytestream_get_byte(ptr noundef %4)
  ret i32 %5
}

; Function Attrs: alwaysinline nounwind uwtable
define internal i32 @bytestream_get_byte(ptr noundef %0) #4 {
  %2 = alloca ptr, align 8
  store ptr %0, ptr %2, align 8, !tbaa !26
  %3 = load ptr, ptr %2, align 8, !tbaa !26
  %4 = load ptr, ptr %3, align 8, !tbaa !29
  %5 = getelementptr inbounds i8, ptr %4, i64 1
  store ptr %5, ptr %3, align 8, !tbaa !29
  %6 = load ptr, ptr %2, align 8, !tbaa !26
  %7 = load ptr, ptr %6, align 8, !tbaa !29
  %8 = getelementptr inbounds i8, ptr %7, i64 -1
  %9 = getelementptr inbounds i8, ptr %8, i64 0
  %10 = load i8, ptr %9, align 1, !tbaa !30
  %11 = zext i8 %10 to i32
  ret i32 %11
}

; Function Attrs: alwaysinline nounwind uwtable
define internal i32 @bytestream2_get_le32u(ptr noundef %0) #4 {
  %2 = alloca ptr, align 8
  store ptr %0, ptr %2, align 8, !tbaa !20
  %3 = load ptr, ptr %2, align 8, !tbaa !20
  %4 = getelementptr inbounds nuw %struct.GetByteContext, ptr %3, i32 0, i32 0
  %5 = call i32 @bytestream_get_le32(ptr noundef %4)
  ret i32 %5
}

; Function Attrs: alwaysinline nounwind uwtable
define internal i32 @bytestream_get_le32(ptr noundef %0) #4 {
  %2 = alloca ptr, align 8
  store ptr %0, ptr %2, align 8, !tbaa !26
  %3 = load ptr, ptr %2, align 8, !tbaa !26
  %4 = load ptr, ptr %3, align 8, !tbaa !29
  %5 = getelementptr inbounds i8, ptr %4, i64 4
  store ptr %5, ptr %3, align 8, !tbaa !29
  %6 = load ptr, ptr %2, align 8, !tbaa !26
  %7 = load ptr, ptr %6, align 8, !tbaa !29
  %8 = getelementptr inbounds i8, ptr %7, i64 -4
  %9 = load i32, ptr %8, align 1, !tbaa !30
  ret i32 %9
}


!llvm.module.flags = !{!0, !1, !2, !3}

!0 = !{i32 1, !"wchar_size", i32 4}
!1 = !{i32 8, !"PIC Level", i32 2}
!2 = !{i32 7, !"uwtable", i32 2}
!3 = !{i32 1, !"override-stack-alignment", i32 16}
!4 = !{!5, !5, i64 0}
!5 = !{!"p1 _ZTS10HapContext", !6, i64 0}
!6 = !{!"any pointer", !7, i64 0}
!7 = !{!"omnipotent char", !8, i64 0}
!8 = !{!"Simple C/C++ TBAA"}
!9 = !{!10, !10, i64 0}
!10 = !{!"int", !7, i64 0}
!11 = !{!12, !10, i64 44}
!12 = !{!"HapContext", !13, i64 0, !14, i64 8, !10, i64 32, !10, i64 36, !10, i64 40, !10, i64 44, !16, i64 48, !17, i64 56, !15, i64 64, !18, i64 72, !18, i64 80, !10, i64 88, !10, i64 92, !19, i64 96, !7, i64 152}
!13 = !{!"p1 _ZTS7AVClass", !6, i64 0}
!14 = !{!"GetByteContext", !15, i64 0, !15, i64 8, !15, i64 16}
!15 = !{!"p1 omnipotent char", !6, i64 0}
!16 = !{!"p1 _ZTS8HapChunk", !6, i64 0}
!17 = !{!"p1 int", !6, i64 0}
!18 = !{!"long", !7, i64 0}
!19 = !{!"TextureDSPThreadContext", !7, i64 0, !18, i64 8, !10, i64 16, !10, i64 20, !7, i64 24, !10, i64 32, !10, i64 36, !10, i64 40, !6, i64 48}
!20 = !{!21, !21, i64 0}
!21 = !{!"p1 _ZTS14GetByteContext", !6, i64 0}
!22 = !{!17, !17, i64 0}
!23 = !{!6, !6, i64 0}
!24 = !{!14, !15, i64 8}
!25 = !{!14, !15, i64 0}
!26 = !{!27, !27, i64 0}
!27 = !{!"p2 omnipotent char", !28, i64 0}
!28 = !{!"any p2 pointer", !6, i64 0}
!29 = !{!15, !15, i64 0}
!30 = !{!7, !7, i64 0}
